; Function Attrs: mustprogress uwtable
define internal void @_ZL46T_UConverter_fromUnicode_UTF32_LE_OFFSET_LOGICP25UConverterFromUnicodeArgsP10UErrorCode(ptr noundef %0, ptr noundef %1) #1 {
  %3 = alloca [4 x i8], align 1
  %4 = getelementptr inbounds nuw i8, ptr %0, i64 16
  %5 = load ptr, ptr %4, align 8, !tbaa !36
  %6 = getelementptr inbounds nuw i8, ptr %0, i64 24
  %7 = load ptr, ptr %6, align 8, !tbaa !38
  %8 = getelementptr inbounds nuw i8, ptr %0, i64 40
  %9 = load ptr, ptr %8, align 8, !tbaa !39
  call void @llvm.lifetime.start.p0(i64 4, ptr nonnull %3) #7
  %.not = icmp ult ptr %5, %7
  br i1 %.not, label %10, label %101

10:                                               ; preds = %2
  %11 = getelementptr inbounds nuw i8, ptr %0, i64 8
  %12 = load ptr, ptr %11, align 8, !tbaa !40
  %13 = getelementptr inbounds nuw i8, ptr %12, i64 80
  %14 = load i32, ptr %13, align 8, !tbaa !41
  %15 = icmp eq i32 %14, 1
  br i1 %15, label %16, label %21

16:                                               ; preds = %10
  %17 = getelementptr inbounds nuw i8, ptr %0, i64 32
  %18 = getelementptr inbounds nuw i8, ptr %0, i64 48
  tail call void @ucnv_fromUWriteBytes_77(ptr noundef nonnull %12, ptr noundef nonnull @_ZZL46T_UConverter_fromUnicode_UTF32_LE_OFFSET_LOGICP25UConverterFromUnicodeArgsP10UErrorCodeE3bom, i32 noundef 4, ptr noundef nonnull %17, ptr noundef %9, ptr noundef nonnull %18, i32 noundef -1, ptr noundef %1)
  %19 = load ptr, ptr %11, align 8, !tbaa !40
  %20 = getelementptr inbounds nuw i8, ptr %19, i64 80
  store i32 0, ptr %20, align 8, !tbaa !41
  br label %21

21:                                               ; preds = %16, %10
  %22 = phi ptr [ %19, %16 ], [ %12, %10 ]
  %23 = getelementptr inbounds nuw i8, ptr %0, i64 32
  %24 = load ptr, ptr %23, align 8, !tbaa !42
  %25 = getelementptr inbounds nuw i8, ptr %0, i64 48
  %26 = load ptr, ptr %25, align 8, !tbaa !47
  %27 = getelementptr inbounds nuw i8, ptr %3, i64 3
  store i8 0, ptr %27, align 1, !tbaa !23
  %28 = getelementptr inbounds nuw i8, ptr %22, i64 84
  %29 = load i32, ptr %28, align 4, !tbaa !43
  %.not88 = icmp eq i32 %29, 0
  br i1 %.not88, label %31, label %30

30:                                               ; preds = %21
  store i32 0, ptr %28, align 4, !tbaa !43
  br label %44

31:                                               ; preds = %21, %86
  %.179 = phi ptr [ %.583, %86 ], [ %26, %21 ]
  %.175 = phi ptr [ %.5, %86 ], [ %24, %21 ]
  %.170 = phi ptr [ %.3, %86 ], [ %5, %21 ]
  %.1 = phi i32 [ %91, %86 ], [ 0, %21 ]
  %32 = icmp ult ptr %.170, %7
  %33 = icmp ult ptr %.175, %9
  %34 = select i1 %32, i1 %33, i1 false
  br i1 %34, label %35, label %94

35:                                               ; preds = %31
  %36 = getelementptr inbounds nuw i8, ptr %.170, i64 2
  %37 = load i16, ptr %.170, align 2, !tbaa !26
  %38 = zext i16 %37 to i32
  %39 = and i32 %38, 63488
  %40 = icmp eq i32 %39, 55296
  br i1 %40, label %41, label %61

41:                                               ; preds = %35
  %42 = and i32 %38, 56320
  %43 = icmp eq i32 %42, 55296
  br i1 %43, label %44, label %.sink.split.sink.split

44:                                               ; preds = %41, %30
  %.078 = phi ptr [ %26, %30 ], [ %.179, %41 ]
  %.074 = phi ptr [ %24, %30 ], [ %.175, %41 ]
  %.072 = phi i32 [ %29, %30 ], [ %38, %41 ]
  %.069 = phi ptr [ %5, %30 ], [ %36, %41 ]
  %.0 = phi i32 [ 0, %30 ], [ %.1, %41 ]
  %45 = icmp ult ptr %.069, %7
  br i1 %45, label %46, label %56

46:                                               ; preds = %44
  %47 = load i16, ptr %.069, align 2, !tbaa !26
  %48 = zext i16 %47 to i32
  %49 = and i32 %48, 64512
  %50 = icmp eq i32 %49, 56320
  br i1 %50, label %51, label %.sink.split.sink.split

51:                                               ; preds = %46
  %52 = shl i32 %.072, 10
  %53 = add i32 %52, -56613888
  %54 = add i32 %53, %48
  %55 = getelementptr inbounds nuw i8, ptr %.069, i64 2
  br label %61

56:                                               ; preds = %44
  %57 = load ptr, ptr %11, align 8, !tbaa !40
  %58 = getelementptr inbounds nuw i8, ptr %57, i64 84
  store i32 %.072, ptr %58, align 4, !tbaa !43
  %59 = getelementptr inbounds nuw i8, ptr %0, i64 2
  %60 = load i8, ptr %59, align 2, !tbaa !44
  %.not89 = icmp eq i8 %60, 0
  br i1 %.not89, label %94, label %.sink.split

61:                                               ; preds = %51, %35
  %.381 = phi ptr [ %.078, %51 ], [ %.179, %35 ]
  %.377 = phi ptr [ %.074, %51 ], [ %.175, %35 ]
  %.173 = phi i32 [ %54, %51 ], [ %38, %35 ]
  %.3 = phi ptr [ %55, %51 ], [ %36, %35 ]
  %.2 = phi i32 [ %.0, %51 ], [ %.1, %35 ]
  %62 = lshr i32 %.173, 16
  %63 = trunc i32 %62 to i8
  %64 = and i8 %63, 31
  %65 = getelementptr inbounds nuw i8, ptr %3, i64 2
  store i8 %64, ptr %65, align 1, !tbaa !23
  %66 = lshr i32 %.173, 8
  %67 = trunc i32 %66 to i8
  %68 = getelementptr inbounds nuw i8, ptr %3, i64 1
  store i8 %67, ptr %68, align 1, !tbaa !23
  %69 = trunc i32 %.173 to i8
  store i8 %69, ptr %3, align 1, !tbaa !23
  br label %70

70:                                               ; preds = %61, %85
  %indvars.iv = phi i64 [ 0, %61 ], [ %indvars.iv.next, %85 ]
  %.493 = phi ptr [ %.377, %61 ], [ %.5, %85 ]
  %.48292 = phi ptr [ %.381, %61 ], [ %.583, %85 ]
  %71 = icmp ult ptr %.493, %9
  %72 = getelementptr inbounds nuw [4 x i8], ptr %3, i64 0, i64 %indvars.iv
  %73 = load i8, ptr %72, align 1, !tbaa !23
  br i1 %71, label %74, label %77

74:                                               ; preds = %70
  %75 = getelementptr inbounds nuw i8, ptr %.493, i64 1
  store i8 %73, ptr %.493, align 1, !tbaa !23
  %76 = getelementptr inbounds nuw i8, ptr %.48292, i64 4
  store i32 %.2, ptr %.48292, align 4, !tbaa !34
  br label %85

77:                                               ; preds = %70
  %78 = load ptr, ptr %11, align 8, !tbaa !40
  %79 = getelementptr inbounds nuw i8, ptr %78, i64 104
  %80 = getelementptr inbounds nuw i8, ptr %78, i64 91
  %81 = load i8, ptr %80, align 1, !tbaa !45
  %82 = add i8 %81, 1
  store i8 %82, ptr %80, align 1, !tbaa !45
  %83 = sext i8 %81 to i64
  %84 = getelementptr inbounds [32 x i8], ptr %79, i64 0, i64 %83
  store i8 %73, ptr %84, align 1, !tbaa !23
  store i32 15, ptr %1, align 4, !tbaa !30
  br label %85

85:                                               ; preds = %74, %77
  %.583 = phi ptr [ %76, %74 ], [ %.48292, %77 ]
  %.5 = phi ptr [ %75, %74 ], [ %.493, %77 ]
  %indvars.iv.next = add nuw nsw i64 %indvars.iv, 1
  %exitcond.not = icmp eq i64 %indvars.iv.next, 4
  br i1 %exitcond.not, label %86, label %70, !llvm.loop !55

86:                                               ; preds = %85
  %87 = add nsw i32 %.2, 1
  %88 = load i8, ptr %65, align 1, !tbaa !23
  %89 = icmp ne i8 %88, 0
  %90 = zext i1 %89 to i32
  %91 = add nsw i32 %87, %90
  br label %31, !llvm.loop !56

.sink.split.sink.split:                           ; preds = %41, %46
  %.072.sink = phi i32 [ %.072, %46 ], [ %38, %41 ]
  %.280.ph.ph = phi ptr [ %.078, %46 ], [ %.179, %41 ]
  %.276.ph.ph = phi ptr [ %.074, %46 ], [ %.175, %41 ]
  %.271.ph.ph = phi ptr [ %.069, %46 ], [ %36, %41 ]
  %92 = load ptr, ptr %11, align 8, !tbaa !40
  %93 = getelementptr inbounds nuw i8, ptr %92, i64 84
  store i32 %.072.sink, ptr %93, align 4, !tbaa !43
  br label %.sink.split

.sink.split:                                      ; preds = %.sink.split.sink.split, %56
  %.280.ph = phi ptr [ %.078, %56 ], [ %.280.ph.ph, %.sink.split.sink.split ]
  %.276.ph = phi ptr [ %.074, %56 ], [ %.276.ph.ph, %.sink.split.sink.split ]
  %.271.ph = phi ptr [ %.069, %56 ], [ %.271.ph.ph, %.sink.split.sink.split ]
  store i32 12, ptr %1, align 4, !tbaa !30
  br label %94

94:                                               ; preds = %.sink.split, %56, %31
  %.280 = phi ptr [ %.179, %31 ], [ %.078, %56 ], [ %.280.ph, %.sink.split ]
  %.276 = phi ptr [ %.175, %31 ], [ %.074, %56 ], [ %.276.ph, %.sink.split ]
  %.271 = phi ptr [ %.170, %31 ], [ %.069, %56 ], [ %.271.ph, %.sink.split ]
  %95 = icmp uge ptr %.271, %7
  %.not90 = icmp ult ptr %.276, %9
  %or.cond = select i1 %95, i1 true, i1 %.not90
  br i1 %or.cond, label %100, label %96

96:                                               ; preds = %94
  %97 = load i32, ptr %1, align 4, !tbaa !30
  %98 = icmp sgt i32 %97, 0
  br i1 %98, label %100, label %99

99:                                               ; preds = %96
  store i32 15, ptr %1, align 4, !tbaa !30
  br label %100

100:                                              ; preds = %99, %96, %94
  store ptr %.276, ptr %23, align 8, !tbaa !42
  store ptr %.271, ptr %4, align 8, !tbaa !36
  store ptr %.280, ptr %25, align 8, !tbaa !47
  br label %101

101:                                              ; preds = %2, %100
  call void @llvm.lifetime.end.p0(i64 4, ptr nonnull %3) #7
  ret void
}